target datalayout = "e-m:e-p270:32:32-p271:32:32-p272:64:64-i64:64-i128:128-f80:128-n8:16:32:64-S128"
target triple = "x86_64-pc-linux-gnu"

%struct.ident_t = type { i32, i32, i32, i32, ptr }
%"class.std::__cxx11::basic_string" = type { %"struct.std::__cxx11::basic_string<char>::_Alloc_hider", i64, %union.anon }
%"struct.std::__cxx11::basic_string<char>::_Alloc_hider" = type { ptr }
%union.anon = type { i64, [8 x i8] }
%"class.LightGBM::Metric" = type { ptr }
%"class.std::vector" = type { %"struct.std::_Vector_base" }
%"struct.std::_Vector_base" = type { %"struct.std::_Vector_base<std::__cxx11::basic_string<char>, std::allocator<std::__cxx11::basic_string<char>>>::_Vector_impl" }
%"struct.std::_Vector_base<std::__cxx11::basic_string<char>, std::allocator<std::__cxx11::basic_string<char>>>::_Vector_impl" = type { %"struct.std::_Vector_base<std::__cxx11::basic_string<char>, std::allocator<std::__cxx11::basic_string<char>>>::_Vector_impl_data" }
%"struct.std::_Vector_base<std::__cxx11::basic_string<char>, std::allocator<std::__cxx11::basic_string<char>>>::_Vector_impl_data" = type { ptr, ptr, ptr }
%"class.std::vector.18" = type { %"struct.std::_Vector_base.19" }
%"struct.std::_Vector_base.19" = type { %"struct.std::_Vector_base<std::vector<double>, std::allocator<std::vector<double>>>::_Vector_impl" }
%"struct.std::_Vector_base<std::vector<double>, std::allocator<std::vector<double>>>::_Vector_impl" = type { %"struct.std::_Vector_base<std::vector<double>, std::allocator<std::vector<double>>>::_Vector_impl_data" }
%"struct.std::_Vector_base<std::vector<double>, std::allocator<std::vector<double>>>::_Vector_impl_data" = type { ptr, ptr, ptr }
%"class.std::vector.8" = type { %"struct.std::_Vector_base.9" }
%"struct.std::_Vector_base.9" = type { %"struct.std::_Vector_base<double, std::allocator<double>>::_Vector_impl" }
%"struct.std::_Vector_base<double, std::allocator<double>>::_Vector_impl" = type { %"struct.std::_Vector_base<double, std::allocator<double>>::_Vector_impl_data" }
%"struct.std::_Vector_base<double, std::allocator<double>>::_Vector_impl_data" = type { ptr, ptr, ptr }
%"struct.LightGBM::Config" = type { %"class.std::__cxx11::basic_string", i32, %"class.std::__cxx11::basic_string", %"class.std::__cxx11::basic_string", %"class.std::__cxx11::basic_string", %"class.std::__cxx11::basic_string", %"class.std::vector", i32, double, i32, %"class.std::__cxx11::basic_string", i32, %"class.std::__cxx11::basic_string", i32, i8, i8, i8, double, i32, i32, double, double, double, double, i32, i32, i8, double, double, i32, i8, i32, i32, double, i8, double, double, double, double, double, double, i32, double, i8, i8, i32, double, double, i32, i32, double, double, i32, i32, %"class.std::vector.3", %"class.std::__cxx11::basic_string", double, %"class.std::vector.8", %"class.std::__cxx11::basic_string", double, double, double, %"class.std::vector.8", %"class.std::vector.8", double, %"class.std::__cxx11::basic_string", i32, %"class.std::__cxx11::basic_string", %"class.std::__cxx11::basic_string", i32, i32, i8, i32, i8, i8, i8, i32, %"class.std::vector.13", i32, i32, i32, i8, i8, i8, i8, i8, i8, i8, i8, %"class.std::__cxx11::basic_string", %"class.std::__cxx11::basic_string", %"class.std::__cxx11::basic_string", %"class.std::__cxx11::basic_string", %"class.std::__cxx11::basic_string", %"class.std::__cxx11::basic_string", i8, i8, %"class.std::__cxx11::basic_string", i32, i32, i8, i8, i8, i8, i8, i32, double, %"class.std::__cxx11::basic_string", %"class.std::__cxx11::basic_string", %"class.std::__cxx11::basic_string", i32, i32, i8, double, double, i8, i8, double, double, double, double, i32, i8, %"class.std::vector.8", double, %"class.std::vector", i32, i8, %"class.std::vector.13", i32, %"class.std::vector.8", i32, i32, i32, %"class.std::__cxx11::basic_string", %"class.std::__cxx11::basic_string", i32, i32, i8, i32, i64, i8, i8, %"class.std::vector.18", %"class.std::vector.23" }
%"class.std::vector.3" = type { %"struct.std::_Vector_base.4" }
%"struct.std::_Vector_base.4" = type { %"struct.std::_Vector_base<signed char, std::allocator<signed char>>::_Vector_impl" }
%"struct.std::_Vector_base<signed char, std::allocator<signed char>>::_Vector_impl" = type { %"struct.std::_Vector_base<signed char, std::allocator<signed char>>::_Vector_impl_data" }
%"struct.std::_Vector_base<signed char, std::allocator<signed char>>::_Vector_impl_data" = type { ptr, ptr, ptr }
%"class.std::vector.23" = type { %"struct.std::_Vector_base.24" }
%"struct.std::_Vector_base.24" = type { %"struct.std::_Vector_base<std::vector<int>, std::allocator<std::vector<int>>>::_Vector_impl" }
%"struct.std::_Vector_base<std::vector<int>, std::allocator<std::vector<int>>>::_Vector_impl" = type { %"struct.std::_Vector_base<std::vector<int>, std::allocator<std::vector<int>>>::_Vector_impl_data" }
%"struct.std::_Vector_base<std::vector<int>, std::allocator<std::vector<int>>>::_Vector_impl_data" = type { ptr, ptr, ptr }
%"class.std::vector.13" = type { %"struct.std::_Vector_base.14" }
%"struct.std::_Vector_base.14" = type { %"struct.std::_Vector_base<int, std::allocator<int>>::_Vector_impl" }
%"struct.std::_Vector_base<int, std::allocator<int>>::_Vector_impl" = type { %"struct.std::_Vector_base<int, std::allocator<int>>::_Vector_impl_data" }
%"struct.std::_Vector_base<int, std::allocator<int>>::_Vector_impl_data" = type { ptr, ptr, ptr }
%"class.LightGBM::RegressionMetric.38" = type { %"class.LightGBM::Metric", i32, ptr, ptr, double, %"struct.LightGBM::Config", %"class.std::vector" }

@1 = private unnamed_addr constant %struct.ident_t { i32 0, i32 514, i32 0, i32 22, ptr @0 }, align 8
@.gomp_critical_user_.reduction.var = common global [8 x i32] zeroinitializer, align 8
@2 = private unnamed_addr constant %struct.ident_t { i32 0, i32 18, i32 0, i32 22, ptr @0 }, align 8

; Function Attrs: mustprogress nounwind uwtable
define internal noundef double @_ZN8LightGBM6CommonL7SafeLogIdEET_S2_(double noundef %0) #7 {
  %2 = alloca double, align 8
  %3 = alloca double, align 8
  store double %0, ptr %3, align 8, !tbaa !138
  %4 = load double, ptr %3, align 8, !tbaa !138
  %5 = fcmp ogt double %4, 0.000000e+00
  br i1 %5, label %6, label %9

6:                                                ; preds = %1
  %7 = load double, ptr %3, align 8, !tbaa !138
  %8 = call double @log(double noundef %7) #3, !tbaa !124
  store double %8, ptr %2, align 8
  br label %10

9:                                                ; preds = %1
  store double 0xFFF0000000000000, ptr %2, align 8
  br label %10

10:                                               ; preds = %9, %6
  %11 = load double, ptr %2, align 8
  ret double %11
}

; Function Attrs: inlinehint mustprogress nounwind uwtable
define linkonce_odr noundef double @_ZN8LightGBM19GammaDevianceMetric11LossOnPointEfdRKNS_6ConfigE(float noundef %0, double noundef %1, ptr noundef nonnull align 8 dereferenceable(1624) %2) #5 comdat align 2 {
  %4 = alloca float, align 4
  %5 = alloca double, align 8
  %6 = alloca ptr, align 8
  %7 = alloca double, align 8
  %8 = alloca double, align 8
  store float %0, ptr %4, align 4, !tbaa !130
  store double %1, ptr %5, align 8, !tbaa !138
  store ptr %2, ptr %6, align 8, !tbaa !9
  call void @llvm.lifetime.start.p0(i64 8, ptr %7) #3
  store double 1.000000e-09, ptr %7, align 8, !tbaa !138
  call void @llvm.lifetime.start.p0(i64 8, ptr %8) #3
  %9 = load float, ptr %4, align 4, !tbaa !130
  %10 = fpext float %9 to double
  %11 = load double, ptr %5, align 8, !tbaa !138
  %12 = fadd double %11, 1.000000e-09
  %13 = fdiv double %10, %12
  store double %13, ptr %8, align 8, !tbaa !138
  %14 = load double, ptr %8, align 8, !tbaa !138
  %15 = load double, ptr %8, align 8, !tbaa !138
  %16 = call noundef double @_ZN8LightGBM6CommonL7SafeLogIdEET_S2_(double noundef %15)
  %17 = fsub double %14, %16
  %18 = fsub double %17, 1.000000e+00
  call void @llvm.lifetime.end.p0(i64 8, ptr %8) #3
  call void @llvm.lifetime.end.p0(i64 8, ptr %7) #3
  ret double %18
}

; Function Attrs: alwaysinline norecurse nounwind uwtable
define internal void @_ZNK8LightGBM16RegressionMetricINS_19GammaDevianceMetricEE4EvalEPKdPKNS_17ObjectiveFunctionE.omp_outlined.113(ptr noalias noundef %0, ptr noalias noundef %1, ptr noundef %2, ptr noundef nonnull align 8 dereferenceable(8) %3, ptr noundef nonnull align 8 dereferenceable(8) %4, ptr noundef nonnull align 8 dereferenceable(8) %5) #17 personality ptr @__gxx_personality_v0 {
  %7 = alloca ptr, align 8
  %8 = alloca ptr, align 8
  %9 = alloca ptr, align 8
  %10 = alloca ptr, align 8
  %11 = alloca ptr, align 8
  %12 = alloca ptr, align 8
  %13 = alloca i32, align 4
  %14 = alloca i32, align 4
  %15 = alloca i32, align 4
  %16 = alloca i32, align 4
  %17 = alloca i32, align 4
  %18 = alloca i32, align 4
  %19 = alloca i32, align 4
  %20 = alloca i32, align 4
  %21 = alloca double, align 8
  %22 = alloca i32, align 4
  %23 = alloca double, align 8
  %24 = alloca [1 x ptr], align 8
  store ptr %0, ptr %7, align 8, !tbaa !234
  store ptr %1, ptr %8, align 8, !tbaa !234
  store ptr %2, ptr %9, align 8, !tbaa !794
  store ptr %3, ptr %10, align 8, !tbaa !305
  store ptr %4, ptr %11, align 8, !tbaa !222
  store ptr %5, ptr %12, align 8, !tbaa !135
  %25 = load ptr, ptr %9, align 8, !tbaa !794
  %26 = load ptr, ptr %10, align 8, !tbaa !305
  %27 = load ptr, ptr %11, align 8, !tbaa !222
  %28 = load ptr, ptr %12, align 8, !tbaa !135
  call void @llvm.lifetime.start.p0(i64 4, ptr %13) #3
  call void @llvm.lifetime.start.p0(i64 4, ptr %14) #3
  %29 = getelementptr inbounds nuw %"class.LightGBM::RegressionMetric.38", ptr %25, i32 0, i32 1
  %30 = load i32, ptr %29, align 8, !tbaa !796
  store i32 %30, ptr %14, align 4, !tbaa !124
  call void @llvm.lifetime.start.p0(i64 4, ptr %15) #3
  %31 = load i32, ptr %14, align 4, !tbaa !124
  %32 = sub nsw i32 %31, 0
  %33 = sdiv i32 %32, 1
  %34 = sub nsw i32 %33, 1
  store i32 %34, ptr %15, align 4, !tbaa !124
  call void @llvm.lifetime.start.p0(i64 4, ptr %16) #3
  store i32 0, ptr %16, align 4, !tbaa !124
  call void @llvm.lifetime.end.p0(i64 4, ptr %16) #3
  %35 = load i32, ptr %14, align 4, !tbaa !124
  %36 = icmp slt i32 0, %35
  br i1 %36, label %37, label %108

37:                                               ; preds = %6
  call void @llvm.lifetime.start.p0(i64 4, ptr %17) #3
  store i32 0, ptr %17, align 4, !tbaa !124
  call void @llvm.lifetime.start.p0(i64 4, ptr %18) #3
  %38 = load i32, ptr %15, align 4, !tbaa !124
  store i32 %38, ptr %18, align 4, !tbaa !124
  call void @llvm.lifetime.start.p0(i64 4, ptr %19) #3
  store i32 1, ptr %19, align 4, !tbaa !124
  call void @llvm.lifetime.start.p0(i64 4, ptr %20) #3
  store i32 0, ptr %20, align 4, !tbaa !124
  call void @llvm.lifetime.start.p0(i64 8, ptr %21) #3
  store double 0.000000e+00, ptr %21, align 8, !tbaa !138
  call void @llvm.lifetime.start.p0(i64 4, ptr %22) #3
  %39 = load ptr, ptr %7, align 8
  %40 = load i32, ptr %39, align 4, !tbaa !124
  call void @__kmpc_for_static_init_4(ptr @1, i32 %40, i32 34, ptr %20, ptr %17, ptr %18, ptr %19, i32 1, i32 1)
  %41 = load i32, ptr %18, align 4, !tbaa !124
  %42 = load i32, ptr %15, align 4, !tbaa !124
  %43 = icmp sgt i32 %41, %42
  br i1 %43, label %44, label %46

44:                                               ; preds = %37
  %45 = load i32, ptr %15, align 4, !tbaa !124
  br label %48

46:                                               ; preds = %37
  %47 = load i32, ptr %18, align 4, !tbaa !124
  br label %48

48:                                               ; preds = %46, %44
  %49 = phi i32 [ %45, %44 ], [ %47, %46 ]
  store i32 %49, ptr %18, align 4, !tbaa !124
  %50 = load i32, ptr %17, align 4, !tbaa !124
  store i32 %50, ptr %13, align 4, !tbaa !124
  br label %51

51:                                               ; preds = %89, %48
  %52 = load i32, ptr %13, align 4, !tbaa !124
  %53 = load i32, ptr %18, align 4, !tbaa !124
  %54 = icmp sle i32 %52, %53
  br i1 %54, label %56, label %55

55:                                               ; preds = %51
  br label %92

56:                                               ; preds = %51
  %57 = load i32, ptr %13, align 4, !tbaa !124
  %58 = mul nsw i32 %57, 1
  %59 = add nsw i32 0, %58
  store i32 %59, ptr %22, align 4, !tbaa !124
  call void @llvm.lifetime.start.p0(i64 8, ptr %23) #3
  store double 0.000000e+00, ptr %23, align 8, !tbaa !138
  %60 = load ptr, ptr %26, align 8, !tbaa !136
  %61 = load ptr, ptr %27, align 8, !tbaa !135
  %62 = load i32, ptr %22, align 4, !tbaa !124
  %63 = sext i32 %62 to i64
  %64 = getelementptr inbounds double, ptr %61, i64 %63
  %65 = load ptr, ptr %60, align 8, !tbaa !19
  %66 = getelementptr inbounds ptr, ptr %65, i64 17
  %67 = load ptr, ptr %66, align 8
  invoke void %67(ptr noundef nonnull align 8 dereferenceable(8) %60, ptr noundef %64, ptr noundef %23)
          to label %68 unwind label %109

68:                                               ; preds = %56
  %69 = getelementptr inbounds nuw %"class.LightGBM::RegressionMetric.38", ptr %25, i32 0, i32 2
  %70 = load ptr, ptr %69, align 8, !tbaa !798
  %71 = load i32, ptr %22, align 4, !tbaa !124
  %72 = sext i32 %71 to i64
  %73 = getelementptr inbounds float, ptr %70, i64 %72
  %74 = load float, ptr %73, align 4, !tbaa !130
  %75 = load double, ptr %23, align 8, !tbaa !138
  %76 = getelementptr inbounds nuw %"class.LightGBM::RegressionMetric.38", ptr %25, i32 0, i32 5
  %77 = invoke noundef double @_ZN8LightGBM19GammaDevianceMetric11LossOnPointEfdRKNS_6ConfigE(float noundef %74, double noundef %75, ptr noundef nonnull align 8 dereferenceable(1624) %76)
          to label %78 unwind label %109

78:                                               ; preds = %68
  %79 = getelementptr inbounds nuw %"class.LightGBM::RegressionMetric.38", ptr %25, i32 0, i32 3
  %80 = load ptr, ptr %79, align 8, !tbaa !799
  %81 = load i32, ptr %22, align 4, !tbaa !124
  %82 = sext i32 %81 to i64
  %83 = getelementptr inbounds float, ptr %80, i64 %82
  %84 = load float, ptr %83, align 4, !tbaa !130
  %85 = fpext float %84 to double
  %86 = load double, ptr %21, align 8, !tbaa !138
  %87 = call double @llvm.fmuladd.f64(double %77, double %85, double %86)
  store double %87, ptr %21, align 8, !tbaa !138
  call void @llvm.lifetime.end.p0(i64 8, ptr %23) #3
  br label %88

88:                                               ; preds = %78
  br label %89

89:                                               ; preds = %88
  %90 = load i32, ptr %13, align 4, !tbaa !124
  %91 = add nsw i32 %90, 1
  store i32 %91, ptr %13, align 4, !tbaa !124
  br label %51

92:                                               ; preds = %55
  br label %93

93:                                               ; preds = %92
  %94 = load ptr, ptr %7, align 8
  %95 = load i32, ptr %94, align 4, !tbaa !124
  call void @__kmpc_for_static_fini(ptr @1, i32 %95)
  %96 = getelementptr inbounds [1 x ptr], ptr %24, i64 0, i64 0
  store ptr %21, ptr %96, align 8
  %97 = load ptr, ptr %7, align 8
  %98 = load i32, ptr %97, align 4, !tbaa !124
  %99 = call i32 @__kmpc_reduce_nowait(ptr @2, i32 %98, i32 1, i64 8, ptr %24, ptr @_ZNK8LightGBM16RegressionMetricINS_19GammaDevianceMetricEE4EvalEPKdPKNS_17ObjectiveFunctionE.omp_outlined.113.omp.reduction.reduction_func, ptr @.gomp_critical_user_.reduction.var)
  switch i32 %99, label %107 [
    i32 1, label %100
    i32 2, label %104
  ]

100:                                              ; preds = %93
  %101 = load double, ptr %28, align 8, !tbaa !138
  %102 = load double, ptr %21, align 8, !tbaa !138
  %103 = fadd double %101, %102
  store double %103, ptr %28, align 8, !tbaa !138
  call void @__kmpc_end_reduce_nowait(ptr @2, i32 %98, ptr @.gomp_critical_user_.reduction.var)
  br label %107

104:                                              ; preds = %93
  %105 = load double, ptr %21, align 8, !tbaa !138
  %106 = atomicrmw fadd ptr %28, double %105 monotonic, align 8
  br label %107

107:                                              ; preds = %104, %100, %93
  call void @llvm.lifetime.end.p0(i64 4, ptr %22) #3
  call void @llvm.lifetime.end.p0(i64 8, ptr %21) #3
  call void @llvm.lifetime.end.p0(i64 4, ptr %20) #3
  call void @llvm.lifetime.end.p0(i64 4, ptr %19) #3
  call void @llvm.lifetime.end.p0(i64 4, ptr %18) #3
  call void @llvm.lifetime.end.p0(i64 4, ptr %17) #3
  br label %108

108:                                              ; preds = %107, %6
  call void @llvm.lifetime.end.p0(i64 4, ptr %15) #3
  call void @llvm.lifetime.end.p0(i64 4, ptr %14) #3
  call void @llvm.lifetime.end.p0(i64 4, ptr %13) #3
  ret void

109:                                              ; preds = %68, %56
  %110 = landingpad { ptr, i32 }
          catch ptr null
  %111 = extractvalue { ptr, i32 } %110, 0
  call void @__clang_call_terminate(ptr %111) #27
  unreachable
}